; Function Attrs: mustprogress nofree norecurse nosync nounwind willreturn memory(read, argmem: write, inaccessiblemem: none) uwtable
define hidden void @_ZN10ODDLParser13OpenDDLParser14StdLogCallbackB5cxx11EP8_IO_FILE(ptr dead_on_unwind noalias writable writeonly sret(%"class.std::function") align 8 captures(none) initializes((0, 32)) %0, ptr noundef %1) local_unnamed_addr #13 align 2 personality ptr @__gxx_personality_v0 {
  %.not = icmp eq ptr %1, null
  %3 = load ptr, ptr @stderr, align 8
  %4 = select i1 %.not, ptr %3, ptr %1
  %5 = ptrtoint ptr %4 to i64
  %6 = getelementptr inbounds nuw i8, ptr %0, i64 16
  %7 = getelementptr inbounds nuw i8, ptr %0, i64 24
  %8 = getelementptr inbounds nuw i8, ptr %0, i64 8
  store i64 0, ptr %8, align 8
  store i64 %5, ptr %0, align 8
  store ptr @"_ZNSt17_Function_handlerIFvN10ODDLParser11LogSeverityERKNSt7__cxx1112basic_stringIcSt11char_traitsIcESaIcEEEEZNS0_13OpenDDLParser14StdLogCallbackEP8_IO_FILEE3$_0E9_M_invokeERKSt9_Any_dataOS1_S9_", ptr %7, align 8
  store ptr @"_ZNSt17_Function_handlerIFvN10ODDLParser11LogSeverityERKNSt7__cxx1112basic_stringIcSt11char_traitsIcESaIcEEEEZNS0_13OpenDDLParser14StdLogCallbackEP8_IO_FILEE3$_0E10_M_managerERSt9_Any_dataRKSG_St18_Manager_operation", ptr %6, align 8
  ret void
}